target datalayout = "e-m:e-p270:32:32-p271:32:32-p272:64:64-i64:64-i128:128-f80:128-n8:16:32:64-S128"
target triple = "x86_64-pc-linux-gnu"

%class.TransTableL = type { %class.TransTable, i32, i32, i32, i32, i32, i32, %"struct.TransTableL::pageStatsType", [8192 x %"struct.TransTableL::aggrType"], [12 x [4 x ptr]], [12 x [4 x ptr]], ptr, ptr, %"struct.TransTableL::harvestedType", i32, i32 }
%class.TransTable = type { ptr }
%"struct.TransTableL::pageStatsType" = type { i32, i32, i32, i32, i32 }
%"struct.TransTableL::aggrType" = type { [4 x i32], [4 x [4 x i32]] }
%"struct.TransTableL::harvestedType" = type { i32, [1000 x ptr] }

; Function Attrs: mustprogress nounwind uwtable
define void @_ZN11TransTableL9ReleaseTTEv(ptr noundef nonnull align 8 dereferenceable(664216) %0) #5 align 2 {
  %2 = alloca ptr, align 8
  %3 = alloca i32, align 4
  %4 = alloca i32, align 4
  store ptr %0, ptr %2, align 8
  %5 = load ptr, ptr %2, align 8
  %6 = getelementptr inbounds nuw %class.TransTableL, ptr %5, i32 0, i32 15
  %7 = load i32, ptr %6, align 4
  %8 = icmp ne i32 %7, 0
  br i1 %8, label %10, label %9

9:                                                ; preds = %1
  br label %46

10:                                               ; preds = %1
  %11 = getelementptr inbounds nuw %class.TransTableL, ptr %5, i32 0, i32 15
  store i32 0, ptr %11, align 4
  store i32 0, ptr %3, align 4
  br label %12

12:                                               ; preds = %43, %10
  %13 = load i32, ptr %3, align 4
  %14 = icmp slt i32 %13, 12
  br i1 %14, label %15, label %46

15:                                               ; preds = %12
  store i32 0, ptr %4, align 4
  br label %16

16:                                               ; preds = %39, %15
  %17 = load i32, ptr %4, align 4
  %18 = icmp slt i32 %17, 4
  br i1 %18, label %19, label %42

19:                                               ; preds = %16
  %20 = getelementptr inbounds nuw %class.TransTableL, ptr %5, i32 0, i32 9
  %21 = load i32, ptr %3, align 4
  %22 = sext i32 %21 to i64
  %23 = getelementptr inbounds [12 x [4 x ptr]], ptr %20, i64 0, i64 %22
  %24 = load i32, ptr %4, align 4
  %25 = sext i32 %24 to i64
  %26 = getelementptr inbounds [4 x ptr], ptr %23, i64 0, i64 %25
  %27 = load ptr, ptr %26, align 8
  %28 = icmp eq ptr %27, null
  br i1 %28, label %29, label %30

29:                                               ; preds = %19
  br label %39

30:                                               ; preds = %19
  %31 = getelementptr inbounds nuw %class.TransTableL, ptr %5, i32 0, i32 9
  %32 = load i32, ptr %3, align 4
  %33 = sext i32 %32 to i64
  %34 = getelementptr inbounds [12 x [4 x ptr]], ptr %31, i64 0, i64 %33
  %35 = load i32, ptr %4, align 4
  %36 = sext i32 %35 to i64
  %37 = getelementptr inbounds [4 x ptr], ptr %34, i64 0, i64 %36
  %38 = load ptr, ptr %37, align 8
  call void @free(ptr noundef %38) #3
  br label %39

39:                                               ; preds = %30, %29
  %40 = load i32, ptr %4, align 4
  %41 = add nsw i32 %40, 1
  store i32 %41, ptr %4, align 4
  br label %16, !llvm.loop !16

42:                                               ; preds = %16
  br label %43

43:                                               ; preds = %42
  %44 = load i32, ptr %3, align 4
  %45 = add nsw i32 %44, 1
  store i32 %45, ptr %3, align 4
  br label %12, !llvm.loop !17

46:                                               ; preds = %12, %9
  ret void
}