; Function Attrs: mustprogress nounwind uwtable
define void @_ZN11TransTableL9ReleaseTTEv(ptr nocapture noundef nonnull align 8 dereferenceable(664216) %0) local_unnamed_addr #3 align 2 {
  %2 = getelementptr inbounds nuw i8, ptr %0, i64 664212
  %3 = load i32, ptr %2, align 4
  %.not = icmp eq i32 %3, 0
  br i1 %.not, label %.loopexit, label %4

4:                                                ; preds = %1
  store i32 0, ptr %2, align 4
  %5 = getelementptr inbounds nuw i8, ptr %0, i64 655416
  br label %.preheader

.preheader:                                       ; preds = %4, %12
  %indvars.iv13 = phi i64 [ 0, %4 ], [ %indvars.iv.next14, %12 ]
  br label %6

6:                                                ; preds = %.preheader, %11
  %indvars.iv = phi i64 [ 0, %.preheader ], [ %indvars.iv.next, %11 ]
  %7 = getelementptr inbounds [12 x [4 x ptr]], ptr %5, i64 0, i64 %indvars.iv13, i64 %indvars.iv
  %8 = load ptr, ptr %7, align 8
  %9 = icmp eq ptr %8, null
  br i1 %9, label %11, label %10

10:                                               ; preds = %6
  tail call void @free(ptr noundef nonnull %8) #32
  br label %11

11:                                               ; preds = %6, %10
  %indvars.iv.next = add nuw nsw i64 %indvars.iv, 1
  %exitcond.not = icmp eq i64 %indvars.iv.next, 4
  br i1 %exitcond.not, label %12, label %6, !llvm.loop !9

12:                                               ; preds = %11
  %indvars.iv.next14 = add nuw nsw i64 %indvars.iv13, 1
  %exitcond16.not = icmp eq i64 %indvars.iv.next14, 12
  br i1 %exitcond16.not, label %.loopexit, label %.preheader, !llvm.loop !10

.loopexit:                                        ; preds = %12, %1
  ret void
}